target datalayout = "e-m:e-p270:32:32-p271:32:32-p272:64:64-i64:64-i128:128-f80:128-n8:16:32:64-S128"
target triple = "x86_64-pc-linux-gnu"

%struct.gmx_rmpbc = type { ptr, ptr, i32, i32, i32, ptr }
%struct.t_trxframe = type { i32, i8, i32, i8, i64, i8, float, i8, i8, float, i32, i8, ptr, i8, float, i8, ptr, i8, ptr, i8, ptr, i8, [3 x [3 x float]], i8, i32, i8, ptr }

@stdout = external global ptr, align 8

; Function Attrs: mustprogress uwtable
define internal noundef i32 @_ZL14gmx_rmpbc_ePBCP9gmx_rmpbcPA3_Kf(ptr noundef %0, ptr noundef %1) #0 {
  %3 = alloca i32, align 4
  %4 = alloca ptr, align 8
  %5 = alloca ptr, align 8
  store ptr %0, ptr %4, align 8
  store ptr %1, ptr %5, align 8
  %6 = load ptr, ptr %4, align 8
  %7 = icmp ne ptr null, %6
  br i1 %7, label %8, label %17

8:                                                ; preds = %2
  %9 = load ptr, ptr %4, align 8
  %10 = getelementptr inbounds %struct.gmx_rmpbc, ptr %9, i32 0, i32 3
  %11 = load i32, ptr %10, align 4
  %12 = icmp ne i32 %11, 4
  br i1 %12, label %13, label %17

13:                                               ; preds = %8
  %14 = load ptr, ptr %4, align 8
  %15 = getelementptr inbounds %struct.gmx_rmpbc, ptr %14, i32 0, i32 3
  %16 = load i32, ptr %15, align 4
  store i32 %16, ptr %3, align 4
  br label %20

17:                                               ; preds = %8, %2
  %18 = load ptr, ptr %5, align 8
  %19 = call noundef i32 @_Z12guessPbcTypePA3_Kf(ptr noundef %18)
  store i32 %19, ptr %3, align 4
  br label %20

20:                                               ; preds = %17, %13
  %21 = load i32, ptr %3, align 4
  ret i32 %21
}

; Function Attrs: mustprogress uwtable
define void @_Z15gmx_rmpbc_trxfrP9gmx_rmpbcP10t_trxframe(ptr noundef %0, ptr noundef %1) #0 {
  %3 = alloca ptr, align 8
  %4 = alloca ptr, align 8
  %5 = alloca i32, align 4
  %6 = alloca ptr, align 8
  store ptr %0, ptr %3, align 8
  store ptr %1, ptr %4, align 8
  %7 = load ptr, ptr %4, align 8
  %8 = getelementptr inbounds %struct.t_trxframe, ptr %7, i32 0, i32 15
  %9 = load i8, ptr %8, align 8
  %10 = trunc i8 %9 to i1
  br i1 %10, label %11, label %48

11:                                               ; preds = %2
  %12 = load ptr, ptr %4, align 8
  %13 = getelementptr inbounds %struct.t_trxframe, ptr %12, i32 0, i32 21
  %14 = load i8, ptr %13, align 8
  %15 = trunc i8 %14 to i1
  br i1 %15, label %16, label %48

16:                                               ; preds = %11
  %17 = load ptr, ptr %3, align 8
  %18 = load ptr, ptr %4, align 8
  %19 = getelementptr inbounds %struct.t_trxframe, ptr %18, i32 0, i32 22
  %20 = getelementptr inbounds [3 x [3 x float]], ptr %19, i64 0, i64 0
  %21 = call noundef i32 @_ZL14gmx_rmpbc_ePBCP9gmx_rmpbcPA3_Kf(ptr noundef %17, ptr noundef %20)
  store i32 %21, ptr %5, align 4
  %22 = load ptr, ptr %3, align 8
  %23 = load i32, ptr %5, align 4
  %24 = load ptr, ptr %4, align 8
  %25 = getelementptr inbounds %struct.t_trxframe, ptr %24, i32 0, i32 2
  %26 = load i32, ptr %25, align 8
  %27 = call noundef ptr @_ZL19gmx_rmpbc_get_graphP9gmx_rmpbc7PbcTypei(ptr noundef %22, i32 noundef %23, i32 noundef %26)
  store ptr %27, ptr %6, align 8
  %28 = load ptr, ptr %6, align 8
  %29 = icmp ne ptr %28, null
  br i1 %29, label %30, label %47

30:                                               ; preds = %16
  %31 = load ptr, ptr @stdout, align 8
  %32 = load ptr, ptr %6, align 8
  %33 = load i32, ptr %5, align 4
  %34 = load ptr, ptr %4, align 8
  %35 = getelementptr inbounds %struct.t_trxframe, ptr %34, i32 0, i32 22
  %36 = getelementptr inbounds [3 x [3 x float]], ptr %35, i64 0, i64 0
  %37 = load ptr, ptr %4, align 8
  %38 = getelementptr inbounds %struct.t_trxframe, ptr %37, i32 0, i32 16
  %39 = load ptr, ptr %38, align 8
  call void @_Z9mk_mshiftP8_IO_FILEP7t_graph7PbcTypePA3_KfS6_(ptr noundef %31, ptr noundef %32, i32 noundef %33, ptr noundef %36, ptr noundef %39)
  %40 = load ptr, ptr %6, align 8
  %41 = load ptr, ptr %4, align 8
  %42 = getelementptr inbounds %struct.t_trxframe, ptr %41, i32 0, i32 22
  %43 = getelementptr inbounds [3 x [3 x float]], ptr %42, i64 0, i64 0
  %44 = load ptr, ptr %4, align 8
  %45 = getelementptr inbounds %struct.t_trxframe, ptr %44, i32 0, i32 16
  %46 = load ptr, ptr %45, align 8
  call void @_Z10shift_selfPK7t_graphPA3_KfPA3_f(ptr noundef %40, ptr noundef %43, ptr noundef %46)
  br label %47

47:                                               ; preds = %30, %16
  br label %48

48:                                               ; preds = %47, %11, %2
  ret void
}