; Function Attrs: mustprogress uwtable
define void @_Z15gmx_rmpbc_trxfrP9gmx_rmpbcP10t_trxframe(ptr noundef %0, ptr noundef %1) local_unnamed_addr #0 {
  %3 = getelementptr inbounds i8, ptr %1, i64 64
  %4 = load i8, ptr %3, align 8
  %5 = trunc i8 %4 to i1
  br i1 %5, label %6, label %25

6:                                                ; preds = %2
  %7 = getelementptr inbounds i8, ptr %1, i64 112
  %8 = load i8, ptr %7, align 8
  %9 = trunc i8 %8 to i1
  br i1 %9, label %10, label %25

10:                                               ; preds = %6
  %11 = getelementptr inbounds i8, ptr %1, i64 116
  %.not.i = icmp eq ptr %0, null
  br i1 %.not.i, label %15, label %12

12:                                               ; preds = %10
  %13 = getelementptr inbounds i8, ptr %0, i64 20
  %14 = load i32, ptr %13, align 4
  %.not6.i = icmp eq i32 %14, 4
  br i1 %.not6.i, label %15, label %_ZL14gmx_rmpbc_ePBCP9gmx_rmpbcPA3_Kf.exit

15:                                               ; preds = %12, %10
  %16 = tail call noundef i32 @_Z12guessPbcTypePA3_Kf(ptr noundef nonnull %11)
  br label %_ZL14gmx_rmpbc_ePBCP9gmx_rmpbcPA3_Kf.exit

_ZL14gmx_rmpbc_ePBCP9gmx_rmpbcPA3_Kf.exit:        ; preds = %12, %15
  %.0.i = phi i32 [ %16, %15 ], [ %14, %12 ]
  %17 = getelementptr inbounds i8, ptr %1, i64 8
  %18 = load i32, ptr %17, align 8
  %19 = tail call fastcc noundef ptr @_ZL19gmx_rmpbc_get_graphP9gmx_rmpbc7PbcTypei(ptr noundef %0, i32 noundef %.0.i, i32 noundef %18)
  %.not = icmp eq ptr %19, null
  br i1 %.not, label %25, label %20

20:                                               ; preds = %_ZL14gmx_rmpbc_ePBCP9gmx_rmpbcPA3_Kf.exit
  %21 = load ptr, ptr @stdout, align 8
  %22 = getelementptr inbounds i8, ptr %1, i64 72
  %23 = load ptr, ptr %22, align 8
  tail call void @_Z9mk_mshiftP8_IO_FILEP7t_graph7PbcTypePA3_KfS6_(ptr noundef %21, ptr noundef nonnull %19, i32 noundef %.0.i, ptr noundef nonnull %11, ptr noundef %23)
  %24 = load ptr, ptr %22, align 8
  tail call void @_Z10shift_selfPK7t_graphPA3_KfPA3_f(ptr noundef nonnull %19, ptr noundef nonnull %11, ptr noundef %24)
  br label %25

25:                                               ; preds = %_ZL14gmx_rmpbc_ePBCP9gmx_rmpbcPA3_Kf.exit, %20, %6, %2
  ret void
}